; Function Attrs: nounwind uwtable
define void @Gia_ManProfileStructures(ptr noundef %0, i32 noundef %1, i32 noundef %2) local_unnamed_addr #0 {
  %4 = getelementptr inbounds nuw i8, ptr %0, i64 40
  %5 = load ptr, ptr %4, align 8
  %.not = icmp eq ptr %5, null
  br i1 %.not, label %7, label %6

6:                                                ; preds = %3
  tail call void @Gia_ManProfileStructuresInt(ptr noundef nonnull %0, i32 noundef %1, i32 noundef %2)
  br label %9

7:                                                ; preds = %3
  %8 = tail call ptr @Gia_ManDupMuxes(ptr noundef nonnull %0, i32 noundef 2)
  tail call void @Gia_ManProfileStructuresInt(ptr noundef %8, i32 noundef %1, i32 noundef %2)
  tail call void @Gia_ManStop(ptr noundef %8) #26
  br label %9

9:                                                ; preds = %7, %6
  ret void
}